(lp1
(dp2
I1617
(lp3
I1522
aI1569
aI1616
asa(dp4
I1616
(lp5
I1570
aI1571
aI1572
aI1573
aI1574
aI1575
aI1576
aI1577
aI1578
aI1579
aI1580
aI1581
aI1582
aI1583
aI1584
aI1585
aI1586
aI1587
aI1588
aI1589
aI1590
aI1591
aI1592
aI1593
aI1594
aI1595
aI1596
aI1597
aI1598
aI1599
aI1600
aI1601
aI1602
aI1603
aI1604
aI1605
aI1606
aI1607
aI1608
aI1609
aI1610
aI1611
aI1612
aI1613
aI1614
aI1615
asI1569
(lp6
I1523
aI1524
aI1525
aI1526
aI1527
aI1528
aI1529
aI1530
aI1531
aI1532
aI1533
aI1534
aI1535
aI1536
aI1537
aI1538
aI1539
aI1540
aI1541
aI1542
aI1543
aI1544
aI1545
aI1546
aI1547
aI1548
aI1549
aI1550
aI1551
aI1552
aI1553
aI1554
aI1555
aI1556
aI1557
aI1558
aI1559
aI1560
aI1561
aI1562
aI1563
aI1564
aI1565
aI1566
aI1567
aI1568
asI1522
(lp7
I1475
aI1476
aI1477
aI1478
aI1479
aI1480
aI1481
aI1482
aI1483
aI1484
aI1485
aI1486
aI1487
aI1488
aI1489
aI1490
aI1491
aI1492
aI1493
aI1494
aI1495
aI1496
aI1497
aI1498
aI1499
aI1500
aI1501
aI1502
aI1503
aI1504
aI1505
aI1506
aI1507
aI1508
aI1509
aI1510
aI1511
aI1512
aI1513
aI1514
aI1515
aI1516
aI1517
aI1518
aI1519
aI1520
aI1521
asa(dp8
I1536
(lp9
I621
aI622
aI623
aI624
aI625
aI626
aI627
aI628
aI629
aI630
aI631
aI632
aI633
aI634
aI635
aI636
aI637
aI638
asI1537
(lp10
I639
aI640
aI641
aI642
aI643
aI644
aI645
asI1538
(lp11
I646
aI647
asI1539
(lp12
I648
aI649
aI650
aI651
aI652
aI653
aI654
aI655
aI656
asI1540
(lp13
I657
aI658
aI659
aI660
aI661
aI662
aI663
aI664
aI665
aI666
aI667
asI1541
(lp14
I668
aI669
aI670
aI671
aI672
aI673
aI674
aI675
aI676
aI677
asI1542
(lp15
I678
aI679
aI680
aI681
aI682
aI683
aI684
aI685
aI686
aI687
asI1543
(lp16
I688
aI689
aI690
aI691
aI692
aI693
aI694
aI695
aI696
aI697
aI698
aI699
aI700
aI701
aI702
aI703
aI704
asI1544
(lp17
I705
aI706
aI707
aI708
aI709
aI710
aI711
aI712
aI713
aI714
aI715
aI716
aI717
aI718
aI719
asI1545
(lp18
I720
aI721
aI722
aI723
aI724
aI725
aI726
asI1546
(lp19
I727
aI728
aI729
aI730
aI731
aI732
asI1547
(lp20
I733
aI734
aI735
aI736
aI737
aI738
aI739
aI740
aI741
aI742
aI743
aI744
aI745
aI746
aI747
asI1548
(lp21
I748
aI749
aI750
aI751
aI752
aI753
aI754
asI1549
(lp22
I755
aI756
aI757
aI758
aI759
aI760
aI761
aI762
aI763
aI764
aI765
aI766
aI767
aI768
aI769
asI1550
(lp23
I770
aI771
aI772
aI773
aI774
aI775
aI776
aI777
aI778
aI779
aI780
aI781
aI782
asI1551
(lp24
I783
aI784
aI785
aI786
aI787
aI788
asI1552
(lp25
I789
aI790
aI791
aI792
aI793
aI794
aI795
aI796
aI797
aI798
aI799
aI800
asI1553
(lp26
I801
aI802
aI803
aI804
aI805
aI806
aI807
aI808
aI809
aI810
aI811
aI812
asI1554
(lp27
I813
aI814
aI815
aI816
aI817
aI818
aI819
asI1555
(lp28
I820
aI821
aI822
aI823
aI824
aI825
aI826
aI827
aI828
aI829
aI830
aI831
asI1556
(lp29
I832
aI833
aI834
aI835
aI836
aI837
aI838
aI839
aI840
aI841
aI842
aI843
aI844
aI845
aI846
asI1557
(lp30
I847
aI848
aI849
aI850
aI851
aI852
aI853
aI854
aI855
asI1558
(lp31
I856
aI857
aI858
aI859
aI860
aI861
aI862
aI863
aI864
aI865
aI866
aI867
asI1559
(lp32
I868
aI869
aI870
aI871
aI872
aI873
aI874
aI875
aI876
aI877
asI1560
(lp33
I878
aI879
aI880
aI881
aI882
aI883
aI884
aI885
asI1561
(lp34
I886
aI887
aI888
aI889
aI890
aI891
aI892
aI893
aI894
aI895
asI1562
(lp35
I896
aI897
aI898
aI899
aI900
aI901
asI1563
(lp36
I902
aI903
aI904
aI905
aI906
aI907
aI908
aI909
aI910
aI911
asI1564
(lp37
I912
aI913
aI914
aI915
aI916
aI917
aI918
aI919
aI920
aI921
aI922
aI923
aI924
aI925
aI926
aI927
aI928
aI929
asI1565
(lp38
I930
aI931
aI932
aI933
aI934
aI935
aI936
aI937
aI938
asI1566
(lp39
I939
aI940
aI941
aI942
aI943
aI944
asI1567
(lp40
I945
aI946
aI947
aI948
aI949
aI950
aI951
aI952
aI953
asI1568
(lp41
I954
aI955
aI956
aI957
aI958
aI959
aI960
aI961
aI962
aI963
aI964
aI965
aI966
aI967
aI968
aI969
asI1570
(lp42
I970
aI971
aI972
aI973
aI974
aI975
aI976
asI1571
(lp43
I977
aI978
aI979
aI980
aI981
aI982
aI983
aI984
aI985
aI986
aI987
aI988
asI1572
(lp44
I989
aI990
aI991
aI992
aI993
aI994
aI995
aI996
aI997
aI998
asI1573
(lp45
I999
aI1000
aI1001
aI1002
aI1003
aI1004
aI1005
aI1006
aI1007
aI1008
asI1574
(lp46
I1009
aI1010
aI1011
aI1012
aI1013
aI1014
aI1015
aI1016
aI1017
aI1018
aI1019
aI1020
asI1575
(lp47
I1021
aI1022
aI1023
aI1024
aI1025
aI1026
aI1027
aI1028
aI1029
asI1576
(lp48
I1030
aI1031
aI1032
aI1033
aI1034
aI1035
asI1577
(lp49
I1036
aI1037
aI1038
aI1039
aI1040
aI1041
aI1042
asI1578
(lp50
I1043
aI1044
aI1045
aI1046
aI1047
asI1579
(lp51
I1048
aI1049
aI1050
aI1051
aI1052
aI1053
aI1054
asI1580
(lp52
I1055
aI1056
aI1057
aI1058
aI1059
aI1060
aI1061
aI1062
aI1063
aI1064
aI1065
aI1066
aI1067
aI1068
aI1069
asI1581
(lp53
I1070
aI1071
aI1072
aI1073
aI1074
aI1075
aI1076
aI1077
aI1078
aI1079
aI1080
aI1081
aI1082
asI1582
(lp54
I1083
aI1084
aI1085
aI1086
aI1087
aI1088
aI1089
aI1090
aI1091
aI1092
aI1093
aI1094
asI1583
(lp55
I1095
aI1096
aI1097
aI1098
aI1099
aI1100
aI1101
aI1102
aI1103
asI1584
(lp56
I1104
aI1105
aI1106
aI1107
aI1108
aI1109
aI1110
aI1111
aI1112
aI1113
aI1114
aI1115
aI1116
aI1117
asI1585
(lp57
I1118
aI1119
aI1120
aI1121
aI1122
asI1586
(lp58
I1123
aI1124
aI1125
aI1126
aI1127
aI1128
aI1129
aI1130
aI1131
aI1132
aI1133
aI1134
aI1135
asI1587
(lp59
I1136
aI1137
aI1138
aI1139
aI1140
aI1141
aI1142
aI1143
aI1144
aI1145
aI1146
aI1147
aI1148
aI1149
aI1150
aI1151
asI1588
(lp60
I1152
aI1153
aI1154
aI1155
aI1156
aI1157
aI1158
aI1159
aI1160
aI1161
aI1162
aI1163
aI1164
asI1589
(lp61
I1165
aI1166
aI1167
aI1168
aI1169
aI1170
aI1171
aI1172
aI1173
aI1174
aI1175
aI1176
aI1177
aI1178
asI1590
(lp62
I1179
aI1180
aI1181
aI1182
aI1183
aI1184
aI1185
aI1186
aI1187
aI1188
asI1591
(lp63
I1189
aI1190
aI1191
aI1192
aI1193
aI1194
aI1195
aI1196
aI1197
aI1198
aI1199
aI1200
asI1592
(lp64
I1201
aI1202
aI1203
aI1204
aI1205
aI1206
aI1207
aI1208
aI1209
aI1210
aI1211
aI1212
aI1213
aI1214
aI1215
aI1216
aI1217
aI1218
aI1219
aI1220
aI1221
asI1593
(lp65
I1222
aI1223
aI1224
aI1225
aI1226
asI1594
(lp66
I1227
aI1228
aI1229
aI1230
aI1231
aI1232
asI1595
(lp67
I1233
aI1234
aI1235
aI1236
aI1237
aI1238
aI1239
aI1240
aI1241
aI1242
aI1243
aI1244
aI1245
aI1246
aI1247
aI1248
aI1249
asI1596
(lp68
I1250
aI1251
aI1252
aI1253
aI1254
aI1255
aI1256
aI1257
aI1258
aI1259
asI1597
(lp69
I1260
aI1261
aI1262
aI1263
asI1598
(lp70
I1264
aI1265
aI1266
aI1267
aI1268
aI1269
aI1270
aI1271
aI1272
aI1273
aI1274
aI1275
aI1276
aI1277
aI1278
aI1279
aI1280
asI1599
(lp71
I1281
aI1282
aI1283
aI1284
aI1285
aI1286
aI1287
aI1288
aI1289
aI1290
aI1291
aI1292
aI1293
aI1294
aI1295
asI1600
(lp72
I1296
aI1297
aI1298
aI1299
asI1601
(lp73
I1300
aI1301
aI1302
aI1303
aI1304
aI1305
aI1306
aI1307
aI1308
aI1309
aI1310
asI1602
(lp74
I1311
aI1312
aI1313
aI1314
aI1315
aI1316
aI1317
aI1318
aI1319
aI1320
aI1321
aI1322
asI1603
(lp75
I1323
aI1324
aI1325
aI1326
aI1327
aI1328
aI1329
aI1330
aI1331
aI1332
aI1333
asI1604
(lp76
I1334
aI1335
aI1336
aI1337
aI1338
aI1339
asI1605
(lp77
I1340
aI1341
aI1342
aI1343
aI1344
aI1345
aI1346
aI1347
aI1348
aI1349
aI1350
aI1351
aI1352
aI1353
aI1354
aI1355
asI1606
(lp78
I1356
aI1357
aI1358
aI1359
aI1360
aI1361
aI1362
aI1363
aI1364
aI1365
asI1607
(lp79
I1366
aI1367
aI1368
aI1369
aI1370
aI1371
aI1372
aI1373
aI1374
aI1375
aI1376
aI1377
aI1378
asI1608
(lp80
I1379
aI1380
aI1381
aI1382
aI1383
aI1384
aI1385
aI1386
aI1387
aI1388
aI1389
aI1390
aI1391
aI1392
aI1393
asI1609
(lp81
I1394
aI1395
aI1396
aI1397
aI1398
asI1610
(lp82
I1399
aI1400
aI1401
aI1402
aI1403
aI1404
aI1405
aI1406
aI1407
aI1408
aI1409
asI1611
(lp83
I1410
aI1411
aI1412
aI1413
aI1414
aI1415
aI1416
aI1417
aI1418
aI1419
aI1420
aI1421
aI1422
asI1612
(lp84
I1423
aI1424
aI1425
aI1426
aI1427
aI1428
aI1429
aI1430
aI1431
aI1432
aI1433
aI1434
aI1435
aI1436
aI1437
aI1438
aI1439
aI1440
aI1441
aI1442
aI1443
asI1613
(lp85
I1444
aI1445
aI1446
aI1447
asI1614
(lp86
I1448
aI1449
aI1450
aI1451
aI1452
aI1453
aI1454
asI1615
(lp87
I1455
aI1456
aI1457
aI1458
aI1459
aI1460
aI1461
aI1462
aI1463
aI1464
aI1465
aI1466
aI1467
aI1468
aI1469
aI1470
aI1471
aI1472
aI1473
aI1474
asI1475
(lp88
I0
aI1
aI2
asI1476
(lp89
I3
aI4
aI5
aI6
aI7
aI8
aI9
aI10
aI11
asI1477
(lp90
I12
aI13
aI14
aI15
aI16
aI17
aI18
aI19
aI20
aI21
aI22
asI1478
(lp91
I23
aI24
aI25
aI26
aI27
aI28
asI1479
(lp92
I29
aI30
aI31
aI32
aI33
aI34
aI35
aI36
aI37
aI38
aI39
aI40
aI41
asI1480
(lp93
I42
aI43
aI44
aI45
aI46
aI47
aI48
aI49
aI50
aI51
aI52
aI53
asI1481
(lp94
I54
aI55
aI56
aI57
aI58
aI59
aI60
aI61
asI1482
(lp95
I62
aI63
aI64
aI65
aI66
aI67
aI68
aI69
asI1483
(lp96
I70
aI71
aI72
aI73
asI1484
(lp97
I74
aI75
aI76
aI77
aI78
aI79
aI80
aI81
aI82
aI83
aI84
aI85
aI86
aI87
aI88
aI89
aI90
asI1485
(lp98
I91
aI92
aI93
asI1486
(lp99
I94
aI95
aI96
aI97
aI98
aI99
aI100
aI101
asI1487
(lp100
I102
aI103
aI104
aI105
aI106
aI107
aI108
aI109
aI110
aI111
aI112
aI113
aI114
aI115
aI116
aI117
asI1488
(lp101
I118
aI119
aI120
aI121
aI122
aI123
aI124
aI125
asI1489
(lp102
I126
aI127
aI128
aI129
aI130
aI131
aI132
aI133
aI134
aI135
aI136
aI137
aI138
aI139
aI140
aI141
aI142
aI143
asI1490
(lp103
I144
aI145
aI146
aI147
aI148
asI1491
(lp104
I149
aI150
aI151
aI152
aI153
aI154
asI1492
(lp105
I155
aI156
aI157
aI158
aI159
aI160
asI1493
(lp106
I161
aI162
aI163
aI164
aI165
aI166
aI167
aI168
asI1494
(lp107
I169
aI170
aI171
aI172
aI173
aI174
aI175
aI176
aI177
aI178
aI179
aI180
aI181
aI182
aI183
aI184
aI185
asI1495
(lp108
I186
aI187
aI188
aI189
aI190
aI191
aI192
aI193
aI194
asI1496
(lp109
I195
aI196
aI197
aI198
aI199
asI1497
(lp110
I200
aI201
aI202
aI203
aI204
aI205
aI206
aI207
aI208
asI1498
(lp111
I209
aI210
aI211
aI212
aI213
aI214
aI215
aI216
aI217
aI218
aI219
aI220
aI221
asI1499
(lp112
I222
aI223
aI224
aI225
aI226
aI227
aI228
aI229
aI230
aI231
aI232
aI233
aI234
aI235
asI1500
(lp113
I236
aI237
aI238
aI239
aI240
aI241
aI242
aI243
aI244
aI245
aI246
aI247
aI248
aI249
aI250
aI251
asI1501
(lp114
I252
aI253
aI254
aI255
aI256
aI257
aI258
aI259
aI260
aI261
aI262
asI1502
(lp115
I263
aI264
aI265
aI266
aI267
aI268
aI269
aI270
aI271
aI272
aI273
aI274
asI1503
(lp116
I275
aI276
aI277
aI278
aI279
aI280
aI281
aI282
aI283
asI1504
(lp117
I284
aI285
aI286
aI287
aI288
aI289
aI290
aI291
aI292
aI293
aI294
aI295
aI296
asI1505
(lp118
I297
aI298
aI299
aI300
aI301
aI302
aI303
aI304
aI305
aI306
aI307
aI308
asI1506
(lp119
I309
aI310
aI311
aI312
aI313
aI314
aI315
aI316
aI317
aI318
asI1507
(lp120
I319
aI320
aI321
aI322
aI323
aI324
aI325
aI326
aI327
aI328
aI329
aI330
aI331
aI332
aI333
asI1508
(lp121
I334
aI335
aI336
aI337
aI338
aI339
asI1509
(lp122
I340
aI341
aI342
aI343
aI344
aI345
aI346
aI347
aI348
asI1510
(lp123
I349
aI350
aI351
aI352
aI353
aI354
aI355
aI356
aI357
aI358
aI359
aI360
aI361
aI362
aI363
aI364
asI1511
(lp124
I365
aI366
aI367
aI368
aI369
aI370
aI371
aI372
aI373
aI374
aI375
aI376
aI377
asI1512
(lp125
I378
aI379
aI380
aI381
aI382
aI383
aI384
aI385
aI386
aI387
asI1513
(lp126
I388
aI389
aI390
aI391
aI392
aI393
aI394
aI395
aI396
aI397
aI398
aI399
aI400
aI401
aI402
asI1514
(lp127
I403
aI404
aI405
aI406
asI1515
(lp128
I407
aI408
aI409
aI410
aI411
aI412
aI413
asI1516
(lp129
I414
aI415
aI416
aI417
aI418
aI419
aI420
aI421
aI422
asI1517
(lp130
I423
aI424
aI425
aI426
aI427
aI428
aI429
aI430
aI431
aI432
aI433
aI434
aI435
aI436
aI437
aI438
aI439
aI440
asI1518
(lp131
I441
aI442
aI443
aI444
aI445
aI446
aI447
aI448
aI449
asI1519
(lp132
I450
aI451
aI452
aI453
aI454
aI455
asI1520
(lp133
I456
aI457
aI458
aI459
aI460
aI461
aI462
aI463
aI464
asI1521
(lp134
I465
aI466
aI467
aI468
aI469
aI470
aI471
aI472
aI473
aI474
aI475
aI476
aI477
aI478
aI479
aI480
asI1523
(lp135
I481
aI482
aI483
aI484
aI485
aI486
aI487
aI488
aI489
aI490
aI491
asI1524
(lp136
I492
aI493
aI494
aI495
aI496
aI497
asI1525
(lp137
I498
aI499
aI500
aI501
aI502
aI503
aI504
aI505
asI1526
(lp138
I506
aI507
aI508
aI509
aI510
aI511
aI512
aI513
aI514
aI515
aI516
aI517
aI518
asI1527
(lp139
I519
aI520
aI521
aI522
aI523
aI524
aI525
aI526
aI527
aI528
aI529
aI530
aI531
aI532
aI533
aI534
aI535
asI1528
(lp140
I536
aI537
aI538
aI539
aI540
aI541
aI542
aI543
aI544
aI545
aI546
aI547
aI548
asI1529
(lp141
I549
aI550
aI551
aI552
aI553
aI554
aI555
aI556
aI557
aI558
aI559
aI560
aI561
aI562
aI563
aI564
asI1530
(lp142
I565
aI566
aI567
aI568
aI569
aI570
aI571
aI572
aI573
aI574
asI1531
(lp143
I575
aI576
aI577
aI578
aI579
aI580
aI581
aI582
aI583
asI1532
(lp144
I584
aI585
aI586
aI587
aI588
aI589
asI1533
(lp145
I590
aI591
aI592
aI593
aI594
aI595
aI596
aI597
aI598
aI599
aI600
aI601
aI602
aI603
aI604
aI605
aI606
aI607
asI1534
(lp146
I608
aI609
aI610
aI611
aI612
aI613
asI1535
(lp147
I614
aI615
aI616
aI617
aI618
aI619
aI620
asa.